; Function Attrs: mustprogress nounwind uwtable
define void @_ZN5boost6fibers7context6resumeEPS1_(ptr noundef nonnull align 8 dereferenceable(232) %0, ptr noundef %1) local_unnamed_addr #3 align 2 personality ptr @__gxx_personality_v0 {
  %3 = alloca %class.anon.23, align 8
  %4 = tail call align 8 ptr @llvm.threadlocal.address.p0(ptr align 8 @_ZN5boost6fibers19context_initializer7active_E)
  %5 = load ptr, ptr %4, align 8, !tbaa !13
  store ptr %0, ptr %4, align 8, !tbaa !13
  %6 = getelementptr inbounds nuw i8, ptr %0, i64 208
  call void @llvm.lifetime.start.p0(i64 16, ptr nonnull %3) #8, !noalias !62
  store ptr %5, ptr %3, align 8, !tbaa !13, !noalias !62
  %.sroa.4.0..sroa_idx = getelementptr inbounds i8, ptr %3, i64 8
  store ptr %1, ptr %.sroa.4.0..sroa_idx, align 8, !tbaa !13, !noalias !62
  %7 = load ptr, ptr %6, align 8, !tbaa !13, !noalias !62
  store ptr null, ptr %6, align 8, !tbaa !13, !noalias !62
  %8 = invoke { ptr, ptr } @ontop_fcontext(ptr noundef %7, ptr noundef nonnull %3, ptr noundef nonnull @"_ZN5boost7context6detail11fiber_ontopINS0_5fiberEZNS_6fibers7context6resumeEPS5_E3$_0EENS1_10transfer_tES8_")
          to label %9 unwind label %16

9:                                                ; preds = %2
  %10 = extractvalue { ptr, ptr } %8, 0
  call void @llvm.lifetime.end.p0(i64 16, ptr nonnull %3) #8, !noalias !62
  %.not.i = icmp eq ptr %10, null
  br i1 %.not.i, label %_ZN5boost7context5fiberD2Ev.exit, label %11, !prof !55

11:                                               ; preds = %9
  %12 = invoke { ptr, ptr } @ontop_fcontext(ptr noundef nonnull %10, ptr noundef null, ptr noundef nonnull @_ZN5boost7context6detail12fiber_unwindENS1_10transfer_tE)
          to label %_ZN5boost7context5fiberD2Ev.exit unwind label %13

13:                                               ; preds = %11
  %14 = landingpad { ptr, i32 }
          catch ptr null
  %15 = extractvalue { ptr, i32 } %14, 0
  call void @__clang_call_terminate(ptr %15) #32
  unreachable

_ZN5boost7context5fiberD2Ev.exit:                 ; preds = %9, %11
  ret void

16:                                               ; preds = %2
  %17 = landingpad { ptr, i32 }
          catch ptr null
  %18 = extractvalue { ptr, i32 } %17, 0
  call void @__clang_call_terminate(ptr %18) #32
  unreachable
}